target datalayout = "e-m:e-p270:32:32-p271:32:32-p272:64:64-i64:64-i128:128-f80:128-n8:16:32:64-S128"
target triple = "x86_64-pc-linux-gnu"

%struct.redisServer = type { i32, i64, ptr, ptr, ptr, i32, i32, i32, i32, i32, ptr, ptr, ptr, ptr, ptr, i32, i32, i32, i32, i64, i32, i32, i32, i32, ptr, i32, i32, [41 x i8], i32, i64, i32, i32, i32, ptr, ptr, i32, i32, i64, ptr, ptr, ptr, ptr, [2 x i32], i32, i32, i32, i32, i32, i32, [16 x ptr], i32, ptr, ptr, i32, [8 x %struct.connListener], i32, %struct.connListener, ptr, ptr, ptr, ptr, ptr, ptr, ptr, ptr, ptr, ptr, i32, ptr, i32, ptr, [3 x %struct.pause_event], [256 x i8], ptr, i64, i32, i32, [128 x i32], i32, i32, i64, i32, i32, i32, i32, i32, i64, i64, i64, i64, i64, i64, i64, i64, i64, i64, double, i64, i64, i64, i64, i64, i64, i64, i64, i64, i64, i64, i64, i64, i64, i64, i64, i64, i64, i64, i64, i64, double, i64, i64, i64, i64, i64, ptr, i64, i64, i64, %struct.malloc_stats, i64, i64, i64, i64, i64, i64, i64, i64, i64, i64, i64, i64, double, [4 x i64], i64, i64, i64, i64, [128 x i64], [128 x i64], i64, i64, [7 x %struct.anon], i64, i64, i64, i64, i64, i64, [4 x %struct.durationStats], i32, i32, i32, i32, i32, i32, i32, i32, i32, i32, i32, i32, i64, i32, i32, i32, i32, i64, i64, i32, i32, i32, i32, i32, ptr, [3 x %struct.clientBufferLimitsConfig], i32, i32, i32, ptr, i32, i32, i32, i32, i32, i32, ptr, ptr, i32, i32, i64, i64, i64, i64, i64, i32, i32, ptr, i32, i32, i64, i64, i64, i64, i64, i32, i32, i64, i32, i32, i32, i32, i32, i32, i32, i32, ptr, i32, i64, i64, i64, i64, i32, ptr, i32, ptr, i32, i32, i32, i64, i64, i64, i64, i32, i32, i32, i32, i32, i32, ptr, i32, i32, ptr, i32, i32, i32, [2 x i32], i32, %struct.redisOpArray, i32, ptr, i32, ptr, i32, i32, i32, i32, i32, i32, i32, [41 x i8], [41 x i8], i64, i64, i64, i64, i32, i32, ptr, i64, i64, %struct.replDataBuf, i64, i64, i32, i32, i32, i32, i32, i32, i32, i32, i32, i64, ptr, i64, ptr, ptr, ptr, i32, i32, ptr, ptr, i32, i32, i32, i64, i64, i64, i64, ptr, ptr, i32, ptr, i64, i32, i32, i32, i64, i32, i32, i32, i32, ptr, i32, i32, [41 x i8], i64, i32, ptr, i32, i32, i64, i64, i32, i32, i32, i32, i32, i64, [3 x i32], i32, i32, i32, [10 x i32], ptr, ptr, i32, i64, ptr, ptr, i32, i32, i32, i32, i64, i64, i64, i64, i64, i64, i64, i64, i64, i64, i32, i32, i64, i64, i32, i64, i64, i64, i64, i64, ptr, ptr, i32, ptr, i32, i32, i32, i32, i64, i64, ptr, ptr, i32, i32, i32, i32, i32, ptr, ptr, ptr, i32, i32, i32, i32, i32, i32, i32, i64, i32, i32, i64, i32, i32, i32, i32, i32, i32, i32, i64, ptr, ptr, i64, ptr, i32, %struct.aclInfo, i32, i64, i32, i32, i32, %struct.redisTLSContextConfig, ptr, ptr, ptr, ptr, ptr, i64, i32, ptr, i32, i32, i32, i64, i32, ptr }
%struct.connListener = type { [16 x i32], i32, ptr, i32, i32, ptr, ptr }
%struct.pause_event = type { i32, i64 }
%struct.malloc_stats = type { i64, i64, i64, i64, i64, i64, i64, i64, i64, i64, i64 }
%struct.anon = type { i64, i64, [16 x i64], i32 }
%struct.durationStats = type { i64, i64, i64 }
%struct.clientBufferLimitsConfig = type { i64, i64, i64 }
%struct.redisOpArray = type { ptr, i32, i32 }
%struct.replDataBuf = type { ptr, i64, i64, i64, i64 }
%struct.aclInfo = type { i64, i64, i64, i64 }
%struct.redisTLSContextConfig = type { ptr, ptr, ptr, ptr, ptr, ptr, ptr, ptr, ptr, ptr, ptr, ptr, i32, i32, i32, i32 }
%struct.list = type { ptr, ptr, ptr, ptr, ptr, i64 }

@server = external global %struct.redisServer, align 8
@UsersToLoad = dso_local global ptr null, align 8
@.str.121 = private unnamed_addr constant [44 x i8] c"Critical error while loading ACLs. Exiting.\00", align 1
@.str.122 = private unnamed_addr constant [49 x i8] c"Aborting Redis startup because of ACL errors: %s\00", align 1

; Function Attrs: nounwind uwtable
define dso_local void @ACLLoadUsersAtStartup() #0 {
  %1 = alloca ptr, align 8
  %2 = load ptr, ptr getelementptr inbounds nuw (%struct.redisServer, ptr @server, i32 0, i32 414), align 8, !tbaa !222
  %3 = getelementptr inbounds i8, ptr %2, i64 0
  %4 = load i8, ptr %3, align 1, !tbaa !22
  %5 = sext i8 %4 to i32
  %6 = icmp ne i32 %5, 0
  br i1 %6, label %7, label %19

7:                                                ; preds = %0
  %8 = load ptr, ptr @UsersToLoad, align 8, !tbaa !150
  %9 = getelementptr inbounds nuw %struct.list, ptr %8, i32 0, i32 5
  %10 = load i64, ptr %9, align 8, !tbaa !84
  %11 = icmp ne i64 %10, 0
  br i1 %11, label %12, label %19

12:                                               ; preds = %7
  br label %13

13:                                               ; preds = %12
  %14 = load i32, ptr getelementptr inbounds nuw (%struct.redisServer, ptr @server, i32 0, i32 159), align 8, !tbaa !136
  %15 = icmp slt i32 3, %14
  br i1 %15, label %16, label %17

16:                                               ; preds = %13
  br label %18

17:                                               ; preds = %13
  call void (i32, ptr, ...) @_serverLog(i32 noundef 3, ptr noundef @.str.120)
  br label %18

18:                                               ; preds = %17, %16
  call void @exit(i32 noundef 1) #15
  unreachable

19:                                               ; preds = %7, %0
  %20 = call i32 @ACLLoadConfiguredUsers()
  %21 = icmp eq i32 %20, -1
  br i1 %21, label %22, label %29

22:                                               ; preds = %19
  br label %23

23:                                               ; preds = %22
  %24 = load i32, ptr getelementptr inbounds nuw (%struct.redisServer, ptr @server, i32 0, i32 159), align 8, !tbaa !136
  %25 = icmp slt i32 3, %24
  br i1 %25, label %26, label %27

26:                                               ; preds = %23
  br label %28

27:                                               ; preds = %23
  call void (i32, ptr, ...) @_serverLog(i32 noundef 3, ptr noundef @.str.121)
  br label %28

28:                                               ; preds = %27, %26
  call void @exit(i32 noundef 1) #15
  unreachable

29:                                               ; preds = %19
  %30 = load ptr, ptr getelementptr inbounds nuw (%struct.redisServer, ptr @server, i32 0, i32 414), align 8, !tbaa !222
  %31 = getelementptr inbounds i8, ptr %30, i64 0
  %32 = load i8, ptr %31, align 1, !tbaa !22
  %33 = sext i8 %32 to i32
  %34 = icmp ne i32 %33, 0
  br i1 %34, label %35, label %51

35:                                               ; preds = %29
  call void @llvm.lifetime.start.p0(i64 8, ptr %1) #14
  %36 = load ptr, ptr getelementptr inbounds nuw (%struct.redisServer, ptr @server, i32 0, i32 414), align 8, !tbaa !222
  %37 = call ptr @ACLLoadFromFile(ptr noundef %36)
  store ptr %37, ptr %1, align 8, !tbaa !5
  %38 = load ptr, ptr %1, align 8, !tbaa !5
  %39 = icmp ne ptr %38, null
  br i1 %39, label %40, label %50

40:                                               ; preds = %35
  br label %41

41:                                               ; preds = %40
  %42 = load i32, ptr getelementptr inbounds nuw (%struct.redisServer, ptr @server, i32 0, i32 159), align 8, !tbaa !136
  %43 = icmp slt i32 3, %42
  br i1 %43, label %44, label %45

44:                                               ; preds = %41
  br label %48

45:                                               ; preds = %41
  %46 = load ptr, ptr %1, align 8, !tbaa !5
  call void (i32, ptr, ...) @_serverLog(i32 noundef 3, ptr noundef @.str.122, ptr noundef %46)
  br label %47

47:                                               ; preds = %45
  br label %48

48:                                               ; preds = %47, %44
  %49 = load ptr, ptr %1, align 8, !tbaa !5
  call void @sdsfree(ptr noundef %49)
  call void @exit(i32 noundef 1) #15
  unreachable

50:                                               ; preds = %35
  call void @llvm.lifetime.end.p0(i64 8, ptr %1) #14
  br label %51

51:                                               ; preds = %50, %29
  ret void
}