; Function Attrs: nounwind uwtable
define dso_local void @ACLLoadUsersAtStartup() local_unnamed_addr #0 {
  %1 = load ptr, ptr getelementptr inbounds nuw (i8, ptr @server, i64 8080), align 8, !tbaa !210
  %2 = load i8, ptr %1, align 1, !tbaa !19
  %.not = icmp eq i8 %2, 0
  br i1 %.not, label %12, label %3

3:                                                ; preds = %0
  %4 = load ptr, ptr @UsersToLoad, align 8, !tbaa !142
  %5 = getelementptr inbounds nuw i8, ptr %4, i64 40
  %6 = load i64, ptr %5, align 8, !tbaa !82
  %.not3 = icmp eq i64 %6, 0
  br i1 %.not3, label %12, label %7

7:                                                ; preds = %3
  %8 = load i32, ptr getelementptr inbounds nuw (i8, ptr @server, i64 6288), align 8, !tbaa !128
  %9 = icmp sgt i32 %8, 3
  br i1 %9, label %11, label %10

10:                                               ; preds = %7
  tail call void (i32, ptr, ...) @_serverLog(i32 noundef 3, ptr noundef nonnull @.str.120) #25
  br label %11

11:                                               ; preds = %7, %10
  tail call void @exit(i32 noundef 1) #31
  unreachable

12:                                               ; preds = %3, %0
  %13 = tail call i32 @ACLLoadConfiguredUsers()
  %14 = icmp eq i32 %13, -1
  br i1 %14, label %15, label %20

15:                                               ; preds = %12
  %16 = load i32, ptr getelementptr inbounds nuw (i8, ptr @server, i64 6288), align 8, !tbaa !128
  %17 = icmp sgt i32 %16, 3
  br i1 %17, label %19, label %18

18:                                               ; preds = %15
  tail call void (i32, ptr, ...) @_serverLog(i32 noundef 3, ptr noundef nonnull @.str.121) #25
  br label %19

19:                                               ; preds = %15, %18
  tail call void @exit(i32 noundef 1) #31
  unreachable

20:                                               ; preds = %12
  %21 = load ptr, ptr getelementptr inbounds nuw (i8, ptr @server, i64 8080), align 8, !tbaa !210
  %22 = load i8, ptr %21, align 1, !tbaa !19
  %.not4 = icmp eq i8 %22, 0
  br i1 %.not4, label %30, label %23

23:                                               ; preds = %20
  %24 = tail call ptr @ACLLoadFromFile(ptr noundef nonnull %21)
  %.not5 = icmp eq ptr %24, null
  br i1 %.not5, label %30, label %25

25:                                               ; preds = %23
  %26 = load i32, ptr getelementptr inbounds nuw (i8, ptr @server, i64 6288), align 8, !tbaa !128
  %27 = icmp sgt i32 %26, 3
  br i1 %27, label %29, label %28

28:                                               ; preds = %25
  tail call void (i32, ptr, ...) @_serverLog(i32 noundef 3, ptr noundef nonnull @.str.122, ptr noundef nonnull %24) #25
  br label %29

29:                                               ; preds = %25, %28
  tail call void @sdsfree(ptr noundef nonnull %24) #25
  tail call void @exit(i32 noundef 1) #31
  unreachable

30:                                               ; preds = %23, %20
  ret void
}